; Function Attrs: mustprogress uwtable
define hidden void @_ZN19OpenColorIO_v2_4dev14CreateFileNoOpERNS_10OpRcPtrVecERKNSt7__cxx1112basic_stringIcSt11char_traitsIcESaIcEEE(ptr noundef nonnull align 8 dereferenceable(144) %ops, ptr noundef nonnull align 8 dereferenceable(32) %fileReference) local_unnamed_addr #3 personality ptr @__gxx_personality_v0 {
entry:
  %ref.tmp = alloca %"class.std::shared_ptr", align 16
  %ref.tmp1 = alloca %"class.std::shared_ptr.28", align 16
  call fastcc void @_ZSt11make_sharedIN19OpenColorIO_v2_4dev12_GLOBAL__N_18FileNoOpEJRKNSt7__cxx1112basic_stringIcSt11char_traitsIcESaIcEEEEESt10shared_ptrINSt9enable_ifIXntsr8is_arrayIT_EE5valueESD_E4typeEEDpOT0_(ptr noalias nonnull align 8 %ref.tmp1, ptr noundef nonnull align 8 dereferenceable(32) %fileReference)
  %_M_refcount4.i.i = getelementptr inbounds i8, ptr %ref.tmp1, i64 8
  %0 = load <2 x ptr>, ptr %ref.tmp1, align 16
  store ptr null, ptr %_M_refcount4.i.i, align 8
  store <2 x ptr> %0, ptr %ref.tmp, align 16
  store ptr null, ptr %ref.tmp1, align 16
  invoke void @_ZN19OpenColorIO_v2_4dev10OpRcPtrVec9push_backERKSt10shared_ptrINS_2OpEE(ptr noundef nonnull align 8 dereferenceable(144) %ops, ptr noundef nonnull align 8 dereferenceable(16) %ref.tmp)
          to label %invoke.cont unwind label %lpad

invoke.cont:                                      ; preds = %entry
  %_M_refcount.i.i = getelementptr inbounds i8, ptr %ref.tmp, i64 8
  %1 = load ptr, ptr %_M_refcount.i.i, align 8
  %cmp.not.i.i.i = icmp eq ptr %1, null
  br i1 %cmp.not.i.i.i, label %_ZNSt10shared_ptrIN19OpenColorIO_v2_4dev2OpEED2Ev.exit, label %if.then.i.i.i

if.then.i.i.i:                                    ; preds = %invoke.cont
  %_M_use_count.i.i.i.i = getelementptr inbounds i8, ptr %1, i64 8
  %2 = load atomic i64, ptr %_M_use_count.i.i.i.i acquire, align 8
  %cmp.i.i.i.i = icmp eq i64 %2, 4294967297
  %3 = trunc i64 %2 to i32
  br i1 %cmp.i.i.i.i, label %if.then.i.i.i.i, label %if.end.i.i.i.i

if.then.i.i.i.i:                                  ; preds = %if.then.i.i.i
  store i32 0, ptr %_M_use_count.i.i.i.i, align 8
  %_M_weak_count.i.i.i.i = getelementptr inbounds i8, ptr %1, i64 12
  store i32 0, ptr %_M_weak_count.i.i.i.i, align 4
  %vtable.i.i.i.i = load ptr, ptr %1, align 8
  %vfn.i.i.i.i = getelementptr inbounds i8, ptr %vtable.i.i.i.i, i64 16
  %4 = load ptr, ptr %vfn.i.i.i.i, align 8
  call void %4(ptr noundef nonnull align 8 dereferenceable(16) %1) #19
  br label %if.end8.sink.split.i.i.i.i

if.end.i.i.i.i:                                   ; preds = %if.then.i.i.i
  %5 = load i8, ptr @__libc_single_threaded, align 1
  %tobool.i.not.i.i.i.i = icmp eq i8 %5, 0
  br i1 %tobool.i.not.i.i.i.i, label %if.else.i.i.i.i.i, label %if.then.i.i.i.i.i

if.then.i.i.i.i.i:                                ; preds = %if.end.i.i.i.i
  %add.i.i.i.i.i = add nsw i32 %3, -1
  store i32 %add.i.i.i.i.i, ptr %_M_use_count.i.i.i.i, align 4
  br label %_ZN9__gnu_cxx27__exchange_and_add_dispatchEPii.exit.i.i.i.i

if.else.i.i.i.i.i:                                ; preds = %if.end.i.i.i.i
  %6 = atomicrmw volatile add ptr %_M_use_count.i.i.i.i, i32 -1 acq_rel, align 4
  br label %_ZN9__gnu_cxx27__exchange_and_add_dispatchEPii.exit.i.i.i.i

_ZN9__gnu_cxx27__exchange_and_add_dispatchEPii.exit.i.i.i.i: ; preds = %if.else.i.i.i.i.i, %if.then.i.i.i.i.i
  %retval.i.0.i.i.i.i = phi i32 [ %3, %if.then.i.i.i.i.i ], [ %6, %if.else.i.i.i.i.i ]
  %cmp6.i.i.i.i = icmp eq i32 %retval.i.0.i.i.i.i, 1
  br i1 %cmp6.i.i.i.i, label %if.then7.i.i.i.i, label %_ZNSt10shared_ptrIN19OpenColorIO_v2_4dev2OpEED2Ev.exit

if.then7.i.i.i.i:                                 ; preds = %_ZN9__gnu_cxx27__exchange_and_add_dispatchEPii.exit.i.i.i.i
  %vtable.i.i.i.i.i.i = load ptr, ptr %1, align 8
  %vfn.i.i.i.i.i.i = getelementptr inbounds i8, ptr %vtable.i.i.i.i.i.i, i64 16
  %7 = load ptr, ptr %vfn.i.i.i.i.i.i, align 8
  call void %7(ptr noundef nonnull align 8 dereferenceable(16) %1) #19
  %_M_weak_count.i.i.i.i.i.i = getelementptr inbounds i8, ptr %1, i64 12
  %8 = load i8, ptr @__libc_single_threaded, align 1
  %tobool.i.not.i.i.i.i.i.i = icmp eq i8 %8, 0
  br i1 %tobool.i.not.i.i.i.i.i.i, label %if.else.i.i.i.i.i.i.i, label %if.then.i.i.i.i.i.i.i

if.then.i.i.i.i.i.i.i:                            ; preds = %if.then7.i.i.i.i
  %9 = load i32, ptr %_M_weak_count.i.i.i.i.i.i, align 4
  %add.i.i.i.i.i.i.i = add nsw i32 %9, -1
  store i32 %add.i.i.i.i.i.i.i, ptr %_M_weak_count.i.i.i.i.i.i, align 4
  br label %_ZN9__gnu_cxx27__exchange_and_add_dispatchEPii.exit.i.i.i.i.i.i

if.else.i.i.i.i.i.i.i:                            ; preds = %if.then7.i.i.i.i
  %10 = atomicrmw volatile add ptr %_M_weak_count.i.i.i.i.i.i, i32 -1 acq_rel, align 4
  br label %_ZN9__gnu_cxx27__exchange_and_add_dispatchEPii.exit.i.i.i.i.i.i

_ZN9__gnu_cxx27__exchange_and_add_dispatchEPii.exit.i.i.i.i.i.i: ; preds = %if.else.i.i.i.i.i.i.i, %if.then.i.i.i.i.i.i.i
  %retval.i.0.i.i.i.i.i.i = phi i32 [ %9, %if.then.i.i.i.i.i.i.i ], [ %10, %if.else.i.i.i.i.i.i.i ]
  %cmp.i.i.i.i.i.i = icmp eq i32 %retval.i.0.i.i.i.i.i.i, 1
  br i1 %cmp.i.i.i.i.i.i, label %if.end8.sink.split.i.i.i.i, label %_ZNSt10shared_ptrIN19OpenColorIO_v2_4dev2OpEED2Ev.exit

if.end8.sink.split.i.i.i.i:                       ; preds = %_ZN9__gnu_cxx27__exchange_and_add_dispatchEPii.exit.i.i.i.i.i.i, %if.then.i.i.i.i
  %vtable2.i.i.i.i.i.i = load ptr, ptr %1, align 8
  %vfn3.i.i.i.i.i.i = getelementptr inbounds i8, ptr %vtable2.i.i.i.i.i.i, i64 24
  %11 = load ptr, ptr %vfn3.i.i.i.i.i.i, align 8
  call void %11(ptr noundef nonnull align 8 dereferenceable(16) %1) #19
  br label %_ZNSt10shared_ptrIN19OpenColorIO_v2_4dev2OpEED2Ev.exit

_ZNSt10shared_ptrIN19OpenColorIO_v2_4dev2OpEED2Ev.exit: ; preds = %invoke.cont, %_ZN9__gnu_cxx27__exchange_and_add_dispatchEPii.exit.i.i.i.i, %_ZN9__gnu_cxx27__exchange_and_add_dispatchEPii.exit.i.i.i.i.i.i, %if.end8.sink.split.i.i.i.i
  %ref.tmp1.val = load ptr, ptr %_M_refcount4.i.i, align 8
  %cmp.not.i.i.i3 = icmp eq ptr %ref.tmp1.val, null
  br i1 %cmp.not.i.i.i3, label %_ZNSt10shared_ptrIN19OpenColorIO_v2_4dev12_GLOBAL__N_18FileNoOpEED2Ev.exit, label %if.then.i.i.i4

if.then.i.i.i4:                                   ; preds = %_ZNSt10shared_ptrIN19OpenColorIO_v2_4dev2OpEED2Ev.exit
  %_M_use_count.i.i.i.i5 = getelementptr inbounds i8, ptr %ref.tmp1.val, i64 8
  %12 = load atomic i64, ptr %_M_use_count.i.i.i.i5 acquire, align 8
  %cmp.i.i.i.i6 = icmp eq i64 %12, 4294967297
  %13 = trunc i64 %12 to i32
  br i1 %cmp.i.i.i.i6, label %if.then.i.i.i.i29, label %if.end.i.i.i.i7

if.then.i.i.i.i29:                                ; preds = %if.then.i.i.i4
  store i32 0, ptr %_M_use_count.i.i.i.i5, align 8
  %_M_weak_count.i.i.i.i30 = getelementptr inbounds i8, ptr %ref.tmp1.val, i64 12
  store i32 0, ptr %_M_weak_count.i.i.i.i30, align 4
  %vtable.i.i.i.i31 = load ptr, ptr %ref.tmp1.val, align 8
  %vfn.i.i.i.i32 = getelementptr inbounds i8, ptr %vtable.i.i.i.i31, i64 16
  %14 = load ptr, ptr %vfn.i.i.i.i32, align 8
  call void %14(ptr noundef nonnull align 8 dereferenceable(16) %ref.tmp1.val) #19
  br label %if.end8.sink.split.i.i.i.i24

if.end.i.i.i.i7:                                  ; preds = %if.then.i.i.i4
  %15 = load i8, ptr @__libc_single_threaded, align 1
  %tobool.i.not.i.i.i.i8 = icmp eq i8 %15, 0
  br i1 %tobool.i.not.i.i.i.i8, label %if.else.i.i.i.i.i28, label %if.then.i.i.i.i.i9

if.then.i.i.i.i.i9:                               ; preds = %if.end.i.i.i.i7
  %add.i.i.i.i.i10 = add nsw i32 %13, -1
  store i32 %add.i.i.i.i.i10, ptr %_M_use_count.i.i.i.i5, align 4
  br label %_ZN9__gnu_cxx27__exchange_and_add_dispatchEPii.exit.i.i.i.i11

if.else.i.i.i.i.i28:                              ; preds = %if.end.i.i.i.i7
  %16 = atomicrmw volatile add ptr %_M_use_count.i.i.i.i5, i32 -1 acq_rel, align 4
  br label %_ZN9__gnu_cxx27__exchange_and_add_dispatchEPii.exit.i.i.i.i11

_ZN9__gnu_cxx27__exchange_and_add_dispatchEPii.exit.i.i.i.i11: ; preds = %if.else.i.i.i.i.i28, %if.then.i.i.i.i.i9
  %retval.i.0.i.i.i.i12 = phi i32 [ %13, %if.then.i.i.i.i.i9 ], [ %16, %if.else.i.i.i.i.i28 ]
  %cmp6.i.i.i.i13 = icmp eq i32 %retval.i.0.i.i.i.i12, 1
  br i1 %cmp6.i.i.i.i13, label %if.then7.i.i.i.i14, label %_ZNSt10shared_ptrIN19OpenColorIO_v2_4dev12_GLOBAL__N_18FileNoOpEED2Ev.exit

if.then7.i.i.i.i14:                               ; preds = %_ZN9__gnu_cxx27__exchange_and_add_dispatchEPii.exit.i.i.i.i11
  %vtable.i.i.i.i.i.i15 = load ptr, ptr %ref.tmp1.val, align 8
  %vfn.i.i.i.i.i.i16 = getelementptr inbounds i8, ptr %vtable.i.i.i.i.i.i15, i64 16
  %17 = load ptr, ptr %vfn.i.i.i.i.i.i16, align 8
  call void %17(ptr noundef nonnull align 8 dereferenceable(16) %ref.tmp1.val) #19
  %_M_weak_count.i.i.i.i.i.i17 = getelementptr inbounds i8, ptr %ref.tmp1.val, i64 12
  %18 = load i8, ptr @__libc_single_threaded, align 1
  %tobool.i.not.i.i.i.i.i.i18 = icmp eq i8 %18, 0
  br i1 %tobool.i.not.i.i.i.i.i.i18, label %if.else.i.i.i.i.i.i.i27, label %if.then.i.i.i.i.i.i.i19

if.then.i.i.i.i.i.i.i19:                          ; preds = %if.then7.i.i.i.i14
  %19 = load i32, ptr %_M_weak_count.i.i.i.i.i.i17, align 4
  %add.i.i.i.i.i.i.i20 = add nsw i32 %19, -1
  store i32 %add.i.i.i.i.i.i.i20, ptr %_M_weak_count.i.i.i.i.i.i17, align 4
  br label %_ZN9__gnu_cxx27__exchange_and_add_dispatchEPii.exit.i.i.i.i.i.i21

if.else.i.i.i.i.i.i.i27:                          ; preds = %if.then7.i.i.i.i14
  %20 = atomicrmw volatile add ptr %_M_weak_count.i.i.i.i.i.i17, i32 -1 acq_rel, align 4
  br label %_ZN9__gnu_cxx27__exchange_and_add_dispatchEPii.exit.i.i.i.i.i.i21

_ZN9__gnu_cxx27__exchange_and_add_dispatchEPii.exit.i.i.i.i.i.i21: ; preds = %if.else.i.i.i.i.i.i.i27, %if.then.i.i.i.i.i.i.i19
  %retval.i.0.i.i.i.i.i.i22 = phi i32 [ %19, %if.then.i.i.i.i.i.i.i19 ], [ %20, %if.else.i.i.i.i.i.i.i27 ]
  %cmp.i.i.i.i.i.i23 = icmp eq i32 %retval.i.0.i.i.i.i.i.i22, 1
  br i1 %cmp.i.i.i.i.i.i23, label %if.end8.sink.split.i.i.i.i24, label %_ZNSt10shared_ptrIN19OpenColorIO_v2_4dev12_GLOBAL__N_18FileNoOpEED2Ev.exit

if.end8.sink.split.i.i.i.i24:                     ; preds = %_ZN9__gnu_cxx27__exchange_and_add_dispatchEPii.exit.i.i.i.i.i.i21, %if.then.i.i.i.i29
  %vtable2.i.i.i.i.i.i25 = load ptr, ptr %ref.tmp1.val, align 8
  %vfn3.i.i.i.i.i.i26 = getelementptr inbounds i8, ptr %vtable2.i.i.i.i.i.i25, i64 24
  %21 = load ptr, ptr %vfn3.i.i.i.i.i.i26, align 8
  call void %21(ptr noundef nonnull align 8 dereferenceable(16) %ref.tmp1.val) #19
  br label %_ZNSt10shared_ptrIN19OpenColorIO_v2_4dev12_GLOBAL__N_18FileNoOpEED2Ev.exit

_ZNSt10shared_ptrIN19OpenColorIO_v2_4dev12_GLOBAL__N_18FileNoOpEED2Ev.exit: ; preds = %_ZNSt10shared_ptrIN19OpenColorIO_v2_4dev2OpEED2Ev.exit, %_ZN9__gnu_cxx27__exchange_and_add_dispatchEPii.exit.i.i.i.i11, %_ZN9__gnu_cxx27__exchange_and_add_dispatchEPii.exit.i.i.i.i.i.i21, %if.end8.sink.split.i.i.i.i24
  ret void

lpad:                                             ; preds = %entry
  %22 = landingpad { ptr, i32 }
          cleanup
  call void @_ZNSt10shared_ptrIN19OpenColorIO_v2_4dev2OpEED2Ev(ptr noundef nonnull align 8 dereferenceable(16) %ref.tmp) #19
  call fastcc void @_ZNSt10shared_ptrIN19OpenColorIO_v2_4dev12_GLOBAL__N_18FileNoOpEED2Ev(ptr null) #19
  resume { ptr, i32 } %22
}